target datalayout = "e-m:e-p270:32:32-p271:32:32-p272:64:64-i64:64-i128:128-f80:128-n8:16:32:64-S128"
target triple = "x86_64-pc-linux-gnu"

%struct._value_string = type { i32, ptr }
%struct._packet_info = type { ptr, ptr, i32, i32, %struct.nstime_t, %struct.nstime_t, %struct.nstime_t, i8, ptr, ptr, ptr, ptr, %struct._address, %struct._address, %struct._address, %struct._address, %struct._address, %struct._address, i32, ptr, i8, [3 x i8], %struct.anon.1, i32, i32, i32, i32, ptr, i8, ptr, ptr, i16, i16, i32, i32, i16, i32, i32, ptr, ptr, ptr, i8, i8, i16, i16, i16, i32, i16, i16, ptr, ptr, ptr, ptr, ptr, i32, i32 }
%struct.nstime_t = type { i64, i32 }
%struct._address = type { i32, i32, ptr, ptr }
%struct.anon.1 = type { i8, [3 x i8] }

@hf_uds_rdtci_dtc_id = internal global i32 0, align 4
@hf_uds_rdtci_dtc_status = internal global i32 0, align 4
@hf_uds_rdtci_dtc_severity = internal global i32 0, align 4
@hf_uds_rdtci_dtc_functional_unit = internal global i32 0, align 4
@ett_uds_dtc_status_entry = internal global i32 0, align 4
@ett_uds_dtc_status_bits = internal global i32 0, align 4
@.str.760 = private unnamed_addr constant [6 x i8] c" (%s)\00", align 1
@.str.783 = private unnamed_addr constant [24 x i8] c"DTC and Severity Record\00", align 1
@.str.784 = private unnamed_addr constant [42 x i8] c", Severity:0x%02x, Functional Unit:0x%02x\00", align 1
@.str.785 = private unnamed_addr constant [18 x i8] c", Severity:0x%02x\00", align 1
@.str.786 = private unnamed_addr constant [22 x i8] c"DTC and Status Record\00", align 1
@.str.787 = private unnamed_addr constant [28 x i8] c", DTC:0x%06x, Status:0x%02x\00", align 1
@.str.788 = private unnamed_addr constant [33 x i8] c", DTC:0x%06x (%s), Status:0x%02x\00", align 1
@.str.789 = private unnamed_addr constant [15 x i8] c" 0x%06x:0x%02x\00", align 1
@uds_ht_dtc_ids = internal global ptr null, align 8
@uds_standard_dtc_types = internal constant [1 x %struct._value_string] zeroinitializer, align 16

; Function Attrs: nounwind null_pointer_is_valid sspstrong uwtable
define internal i64 @calc_key(i32 noundef %0, i32 noundef %1) #3 {
  %3 = alloca i32, align 4
  %4 = alloca i32, align 4
  store i32 %0, ptr %3, align 4
  store i32 %1, ptr %4, align 4
  %5 = load i32, ptr %4, align 4
  %6 = zext i32 %5 to i64
  %7 = shl i64 %6, 32
  %8 = load i32, ptr %3, align 4
  %9 = zext i32 %8 to i64
  %10 = or i64 %7, %9
  ret i64 %10
}

; Function Attrs: null_pointer_is_valid sspstrong uwtable
define internal ptr @generic_lookup_addr_id(i32 noundef %0, i32 noundef %1, ptr noundef %2) #0 {
  %4 = alloca ptr, align 8
  %5 = alloca i32, align 4
  %6 = alloca i32, align 4
  %7 = alloca ptr, align 8
  %8 = alloca i64, align 8
  %9 = alloca ptr, align 8
  store i32 %0, ptr %5, align 4
  store i32 %1, ptr %6, align 4
  store ptr %2, ptr %7, align 8
  %10 = load ptr, ptr %7, align 8
  %11 = icmp eq ptr %10, null
  br i1 %11, label %12, label %13

12:                                               ; preds = %3
  store ptr null, ptr %4, align 8
  br label %28

13:                                               ; preds = %3
  call void @llvm.lifetime.start.p0(i64 8, ptr %8) #12
  %14 = load i32, ptr %5, align 4
  %15 = load i32, ptr %6, align 4
  %16 = call i64 @calc_key(i32 noundef %14, i32 noundef %15)
  store i64 %16, ptr %8, align 8
  call void @llvm.lifetime.start.p0(i64 8, ptr %9) #12
  %17 = load ptr, ptr %7, align 8
  %18 = call ptr @g_hash_table_lookup(ptr noundef %17, ptr noundef %8)
  store ptr %18, ptr %9, align 8
  %19 = load ptr, ptr %9, align 8
  %20 = icmp eq ptr %19, null
  br i1 %20, label %21, label %26

21:                                               ; preds = %13
  %22 = load i32, ptr %6, align 4
  %23 = call i64 @calc_key(i32 noundef -1, i32 noundef %22)
  store i64 %23, ptr %8, align 8
  %24 = load ptr, ptr %7, align 8
  %25 = call ptr @g_hash_table_lookup(ptr noundef %24, ptr noundef %8)
  store ptr %25, ptr %9, align 8
  br label %26

26:                                               ; preds = %21, %13
  %27 = load ptr, ptr %9, align 8
  store ptr %27, ptr %4, align 8
  call void @llvm.lifetime.end.p0(i64 8, ptr %9) #12
  call void @llvm.lifetime.end.p0(i64 8, ptr %8) #12
  br label %28

28:                                               ; preds = %26, %12
  %29 = load ptr, ptr %4, align 8
  ret ptr %29
}

; Function Attrs: null_pointer_is_valid sspstrong uwtable
define internal ptr @uds_lookup_dtc_name(i32 noundef %0, i32 noundef %1) #0 {
  %3 = alloca i32, align 4
  %4 = alloca i32, align 4
  %5 = alloca ptr, align 8
  store i32 %0, ptr %3, align 4
  store i32 %1, ptr %4, align 4
  call void @llvm.lifetime.start.p0(i64 8, ptr %5) #12
  %6 = load i32, ptr %3, align 4
  %7 = load i32, ptr %4, align 4
  %8 = load ptr, ptr @uds_ht_dtc_ids, align 8
  %9 = call ptr @generic_lookup_addr_id(i32 noundef %6, i32 noundef %7, ptr noundef %8)
  store ptr %9, ptr %5, align 8
  %10 = load ptr, ptr %5, align 8
  %11 = icmp eq ptr %10, null
  br i1 %11, label %12, label %15

12:                                               ; preds = %2
  %13 = load i32, ptr %4, align 4
  %14 = call ptr @try_val_to_str(i32 noundef %13, ptr noundef @uds_standard_dtc_types)
  store ptr %14, ptr %5, align 8
  br label %15

15:                                               ; preds = %12, %2
  %16 = load ptr, ptr %5, align 8
  call void @llvm.lifetime.end.p0(i64 8, ptr %5) #12
  ret ptr %16
}

; Function Attrs: null_pointer_is_valid sspstrong uwtable
define internal void @protoitem_append_dtc_name(ptr noundef %0, i32 noundef %1, i32 noundef %2) #0 {
  %4 = alloca ptr, align 8
  %5 = alloca i32, align 4
  %6 = alloca i32, align 4
  %7 = alloca ptr, align 8
  store ptr %0, ptr %4, align 8
  store i32 %1, ptr %5, align 4
  store i32 %2, ptr %6, align 4
  call void @llvm.lifetime.start.p0(i64 8, ptr %7) #12
  %8 = load i32, ptr %5, align 4
  %9 = load i32, ptr %6, align 4
  %10 = call ptr @uds_lookup_dtc_name(i32 noundef %8, i32 noundef %9)
  store ptr %10, ptr %7, align 8
  %11 = load ptr, ptr %7, align 8
  %12 = icmp ne ptr %11, null
  br i1 %12, label %13, label %16

13:                                               ; preds = %3
  %14 = load ptr, ptr %4, align 8
  %15 = load ptr, ptr %7, align 8
  call void (ptr, ptr, ...) @proto_item_append_text(ptr noundef %14, ptr noundef @.str.760, ptr noundef %15)
  br label %16

16:                                               ; preds = %13, %3
  call void @llvm.lifetime.end.p0(i64 8, ptr %7) #12
  ret void
}

; Function Attrs: null_pointer_is_valid sspstrong uwtable
define internal i32 @dissect_uds_dtc_and_status_record(ptr noundef %0, ptr noundef %1, ptr noundef %2, i32 noundef %3, i32 noundef %4, i1 noundef zeroext %5, i1 noundef zeroext %6) #0 {
  %8 = alloca ptr, align 8
  %9 = alloca ptr, align 8
  %10 = alloca ptr, align 8
  %11 = alloca i32, align 4
  %12 = alloca i32, align 4
  %13 = alloca i8, align 1
  %14 = alloca i8, align 1
  %15 = alloca ptr, align 8
  %16 = alloca ptr, align 8
  %17 = alloca ptr, align 8
  %18 = alloca i32, align 4
  %19 = alloca i32, align 4
  %20 = alloca i32, align 4
  %21 = alloca i64, align 8
  %22 = alloca ptr, align 8
  store ptr %0, ptr %8, align 8
  store ptr %1, ptr %9, align 8
  store ptr %2, ptr %10, align 8
  store i32 %3, ptr %11, align 4
  store i32 %4, ptr %12, align 4
  %23 = zext i1 %5 to i8
  store i8 %23, ptr %13, align 1
  %24 = zext i1 %6 to i8
  store i8 %24, ptr %14, align 1
  call void @llvm.lifetime.start.p0(i64 8, ptr %15) #12
  call void @llvm.lifetime.start.p0(i64 8, ptr %16) #12
  call void @llvm.lifetime.start.p0(i64 8, ptr %17) #12
  %25 = load i8, ptr %13, align 1, !range !11, !noundef !12
  %26 = trunc i8 %25 to i1
  br i1 %26, label %27, label %57

27:                                               ; preds = %7
  %28 = load ptr, ptr %10, align 8
  %29 = load ptr, ptr %8, align 8
  %30 = load i32, ptr %11, align 4
  %31 = load i32, ptr @ett_uds_dtc_status_entry, align 4
  %32 = call ptr @proto_tree_add_subtree(ptr noundef %28, ptr noundef %29, i32 noundef %30, i32 noundef 4, i32 noundef %31, ptr noundef %15, ptr noundef @.str.783)
  store ptr %32, ptr %17, align 8
  call void @llvm.lifetime.start.p0(i64 4, ptr %18) #12
  %33 = load ptr, ptr %17, align 8
  %34 = load i32, ptr @hf_uds_rdtci_dtc_severity, align 4
  %35 = load ptr, ptr %8, align 8
  %36 = load i32, ptr %11, align 4
  %37 = call ptr @proto_tree_add_item_ret_uint(ptr noundef %33, i32 noundef %34, ptr noundef %35, i32 noundef %36, i32 noundef 1, i32 noundef 0, ptr noundef %18)
  %38 = load i32, ptr %11, align 4
  %39 = add i32 %38, 1
  store i32 %39, ptr %11, align 4
  %40 = load i8, ptr %14, align 1, !range !11, !noundef !12
  %41 = trunc i8 %40 to i1
  br i1 %41, label %42, label %53

42:                                               ; preds = %27
  call void @llvm.lifetime.start.p0(i64 4, ptr %19) #12
  %43 = load ptr, ptr %17, align 8
  %44 = load i32, ptr @hf_uds_rdtci_dtc_functional_unit, align 4
  %45 = load ptr, ptr %8, align 8
  %46 = load i32, ptr %11, align 4
  %47 = call ptr @proto_tree_add_item_ret_uint(ptr noundef %43, i32 noundef %44, ptr noundef %45, i32 noundef %46, i32 noundef 1, i32 noundef 0, ptr noundef %19)
  %48 = load i32, ptr %11, align 4
  %49 = add i32 %48, 1
  store i32 %49, ptr %11, align 4
  %50 = load ptr, ptr %15, align 8
  %51 = load i32, ptr %18, align 4
  %52 = load i32, ptr %19, align 4
  call void (ptr, ptr, ...) @proto_item_append_text(ptr noundef %50, ptr noundef @.str.784, i32 noundef %51, i32 noundef %52)
  call void @llvm.lifetime.end.p0(i64 4, ptr %19) #12
  br label %56

53:                                               ; preds = %27
  %54 = load ptr, ptr %15, align 8
  %55 = load i32, ptr %18, align 4
  call void (ptr, ptr, ...) @proto_item_append_text(ptr noundef %54, ptr noundef @.str.785, i32 noundef %55)
  br label %56

56:                                               ; preds = %53, %42
  call void @llvm.lifetime.end.p0(i64 4, ptr %18) #12
  br label %63

57:                                               ; preds = %7
  %58 = load ptr, ptr %10, align 8
  %59 = load ptr, ptr %8, align 8
  %60 = load i32, ptr %11, align 4
  %61 = load i32, ptr @ett_uds_dtc_status_entry, align 4
  %62 = call ptr @proto_tree_add_subtree(ptr noundef %58, ptr noundef %59, i32 noundef %60, i32 noundef 4, i32 noundef %61, ptr noundef %15, ptr noundef @.str.786)
  store ptr %62, ptr %17, align 8
  br label %63

63:                                               ; preds = %57, %56
  call void @llvm.lifetime.start.p0(i64 4, ptr %20) #12
  %64 = load ptr, ptr %17, align 8
  %65 = load i32, ptr @hf_uds_rdtci_dtc_id, align 4
  %66 = load ptr, ptr %8, align 8
  %67 = load i32, ptr %11, align 4
  %68 = call ptr @proto_tree_add_item_ret_uint(ptr noundef %64, i32 noundef %65, ptr noundef %66, i32 noundef %67, i32 noundef 3, i32 noundef 0, ptr noundef %20)
  store ptr %68, ptr %16, align 8
  %69 = load ptr, ptr %16, align 8
  %70 = load i32, ptr %12, align 4
  %71 = load i32, ptr %20, align 4
  call void @protoitem_append_dtc_name(ptr noundef %69, i32 noundef %70, i32 noundef %71)
  %72 = load i32, ptr %11, align 4
  %73 = add i32 %72, 3
  store i32 %73, ptr %11, align 4
  call void @llvm.lifetime.start.p0(i64 8, ptr %21) #12
  %74 = load ptr, ptr %17, align 8
  %75 = load ptr, ptr %8, align 8
  %76 = load i32, ptr %11, align 4
  %77 = load i32, ptr @hf_uds_rdtci_dtc_status, align 4
  %78 = load i32, ptr @ett_uds_dtc_status_bits, align 4
  %79 = call ptr @proto_tree_add_bitmask_with_flags_ret_uint64(ptr noundef %74, ptr noundef %75, i32 noundef %76, i32 noundef %77, i32 noundef %78, ptr noundef @dissect_uds_dtc_and_status_record.dtc_status_flags, i32 noundef 0, i32 noundef 1, ptr noundef %21)
  %80 = load i32, ptr %11, align 4
  %81 = add i32 %80, 1
  store i32 %81, ptr %11, align 4
  call void @llvm.lifetime.start.p0(i64 8, ptr %22) #12
  %82 = load i32, ptr %12, align 4
  %83 = load i32, ptr %20, align 4
  %84 = call ptr @uds_lookup_dtc_name(i32 noundef %82, i32 noundef %83)
  store ptr %84, ptr %22, align 8
  %85 = load ptr, ptr %22, align 8
  %86 = icmp eq ptr %85, null
  br i1 %86, label %87, label %92

87:                                               ; preds = %63
  %88 = load ptr, ptr %15, align 8
  %89 = load i32, ptr %20, align 4
  %90 = load i64, ptr %21, align 8
  %91 = trunc i64 %90 to i32
  call void (ptr, ptr, ...) @proto_item_append_text(ptr noundef %88, ptr noundef @.str.787, i32 noundef %89, i32 noundef %91)
  br label %98

92:                                               ; preds = %63
  %93 = load ptr, ptr %15, align 8
  %94 = load i32, ptr %20, align 4
  %95 = load ptr, ptr %22, align 8
  %96 = load i64, ptr %21, align 8
  %97 = trunc i64 %96 to i32
  call void (ptr, ptr, ...) @proto_item_append_text(ptr noundef %93, ptr noundef @.str.788, i32 noundef %94, ptr noundef %95, i32 noundef %97)
  br label %98

98:                                               ; preds = %92, %87
  %99 = load ptr, ptr %9, align 8
  %100 = getelementptr inbounds nuw %struct._packet_info, ptr %99, i32 0, i32 1
  %101 = load ptr, ptr %100, align 8
  %102 = load i32, ptr %20, align 4
  %103 = load i64, ptr %21, align 8
  %104 = trunc i64 %103 to i32
  call void (ptr, i32, ptr, ...) @col_append_fstr(ptr noundef %101, i32 noundef 25, ptr noundef @.str.789, i32 noundef %102, i32 noundef %104)
  %105 = load i32, ptr %11, align 4
  call void @llvm.lifetime.end.p0(i64 8, ptr %22) #12
  call void @llvm.lifetime.end.p0(i64 8, ptr %21) #12
  call void @llvm.lifetime.end.p0(i64 4, ptr %20) #12
  call void @llvm.lifetime.end.p0(i64 8, ptr %17) #12
  call void @llvm.lifetime.end.p0(i64 8, ptr %16) #12
  call void @llvm.lifetime.end.p0(i64 8, ptr %15) #12
  ret i32 %105
}