; Function Attrs: null_pointer_is_valid sspstrong uwtable
define internal fastcc noundef i32 @dissect_uds_dtc_and_status_record(ptr noundef %0, ptr noundef readonly captures(none) %1, ptr noundef %2, i32 noundef %3, i32 noundef range(i32 -1, 65536) %4, i1 noundef zeroext %5, i1 noundef zeroext %6) unnamed_addr #0 {
  %8 = alloca i64, align 8
  %9 = alloca i64, align 8
  %10 = alloca ptr, align 8
  %11 = alloca i32, align 4
  %12 = alloca i32, align 4
  %13 = alloca i32, align 4
  %14 = alloca i64, align 8
  call void @llvm.lifetime.start.p0(i64 8, ptr nonnull %10) #14
  %15 = load i32, ptr @ett_uds_dtc_status_entry, align 4
  br i1 %5, label %16, label %32

16:                                               ; preds = %7
  %17 = call ptr @proto_tree_add_subtree(ptr noundef %2, ptr noundef %0, i32 noundef %3, i32 noundef 4, i32 noundef %15, ptr noundef nonnull %10, ptr noundef nonnull @.str.783)
  call void @llvm.lifetime.start.p0(i64 4, ptr nonnull %11) #14
  %18 = load i32, ptr @hf_uds_rdtci_dtc_severity, align 4
  %19 = call ptr @proto_tree_add_item_ret_uint(ptr noundef %17, i32 noundef %18, ptr noundef %0, i32 noundef %3, i32 noundef 1, i32 noundef 0, ptr noundef nonnull %11)
  %20 = add i32 %3, 1
  br i1 %6, label %21, label %28

21:                                               ; preds = %16
  call void @llvm.lifetime.start.p0(i64 4, ptr nonnull %12) #14
  %22 = load i32, ptr @hf_uds_rdtci_dtc_functional_unit, align 4
  %23 = call ptr @proto_tree_add_item_ret_uint(ptr noundef %17, i32 noundef %22, ptr noundef %0, i32 noundef %20, i32 noundef 1, i32 noundef 0, ptr noundef nonnull %12)
  %24 = add i32 %3, 2
  %25 = load ptr, ptr %10, align 8
  %26 = load i32, ptr %11, align 4
  %27 = load i32, ptr %12, align 4
  call void (ptr, ptr, ...) @proto_item_append_text(ptr noundef %25, ptr noundef nonnull @.str.784, i32 noundef %26, i32 noundef %27)
  call void @llvm.lifetime.end.p0(i64 4, ptr nonnull %12) #14
  br label %31

28:                                               ; preds = %16
  %29 = load ptr, ptr %10, align 8
  %30 = load i32, ptr %11, align 4
  call void (ptr, ptr, ...) @proto_item_append_text(ptr noundef %29, ptr noundef nonnull @.str.785, i32 noundef %30)
  br label %31

31:                                               ; preds = %28, %21
  %.0 = phi i32 [ %24, %21 ], [ %20, %28 ]
  call void @llvm.lifetime.end.p0(i64 4, ptr nonnull %11) #14
  br label %34

32:                                               ; preds = %7
  %33 = call ptr @proto_tree_add_subtree(ptr noundef %2, ptr noundef %0, i32 noundef %3, i32 noundef 4, i32 noundef %15, ptr noundef nonnull %10, ptr noundef nonnull @.str.786)
  br label %34

34:                                               ; preds = %32, %31
  %.030 = phi ptr [ %17, %31 ], [ %33, %32 ]
  %.1 = phi i32 [ %.0, %31 ], [ %3, %32 ]
  call void @llvm.lifetime.start.p0(i64 4, ptr nonnull %13) #14
  %35 = load i32, ptr @hf_uds_rdtci_dtc_id, align 4
  %36 = call ptr @proto_tree_add_item_ret_uint(ptr noundef %.030, i32 noundef %35, ptr noundef %0, i32 noundef %.1, i32 noundef 3, i32 noundef 0, ptr noundef nonnull %13)
  %37 = load i32, ptr %13, align 4
  %38 = load ptr, ptr @uds_ht_dtc_ids, align 8
  %39 = icmp eq ptr %38, null
  br i1 %39, label %uds_lookup_dtc_name.exit.i, label %40

40:                                               ; preds = %34
  call void @llvm.lifetime.start.p0(i64 8, ptr nonnull %9) #14
  %41 = zext i32 %37 to i64
  %42 = shl nuw i64 %41, 32
  %43 = zext i32 %4 to i64
  %44 = or disjoint i64 %42, %43
  store i64 %44, ptr %9, align 8
  %45 = call ptr @g_hash_table_lookup(ptr noundef nonnull %38, ptr noundef nonnull %9)
  %46 = icmp eq ptr %45, null
  br i1 %46, label %generic_lookup_addr_id.exit.i.i, label %generic_lookup_addr_id.exit.thread6.i.i

generic_lookup_addr_id.exit.thread6.i.i:          ; preds = %40
  call void @llvm.lifetime.end.p0(i64 8, ptr nonnull %9) #14
  br label %uds_lookup_dtc_name.exit.thread.i

generic_lookup_addr_id.exit.i.i:                  ; preds = %40
  %47 = or disjoint i64 %42, 4294967295
  store i64 %47, ptr %9, align 8
  %48 = call ptr @g_hash_table_lookup(ptr noundef nonnull %38, ptr noundef nonnull %9)
  call void @llvm.lifetime.end.p0(i64 8, ptr nonnull %9) #14
  %49 = icmp eq ptr %48, null
  br i1 %49, label %uds_lookup_dtc_name.exit.i, label %uds_lookup_dtc_name.exit.thread.i

uds_lookup_dtc_name.exit.i:                       ; preds = %generic_lookup_addr_id.exit.i.i, %34
  %50 = call ptr @try_val_to_str(i32 noundef %37, ptr noundef nonnull @uds_standard_dtc_types)
  %.not.i = icmp eq ptr %50, null
  br i1 %.not.i, label %protoitem_append_dtc_name.exit, label %uds_lookup_dtc_name.exit.thread.i

uds_lookup_dtc_name.exit.thread.i:                ; preds = %uds_lookup_dtc_name.exit.i, %generic_lookup_addr_id.exit.i.i, %generic_lookup_addr_id.exit.thread6.i.i
  %.0.i6.i = phi ptr [ %50, %uds_lookup_dtc_name.exit.i ], [ %45, %generic_lookup_addr_id.exit.thread6.i.i ], [ %48, %generic_lookup_addr_id.exit.i.i ]
  call void (ptr, ptr, ...) @proto_item_append_text(ptr noundef %36, ptr noundef nonnull @.str.760, ptr noundef nonnull %.0.i6.i)
  br label %protoitem_append_dtc_name.exit

protoitem_append_dtc_name.exit:                   ; preds = %uds_lookup_dtc_name.exit.i, %uds_lookup_dtc_name.exit.thread.i
  %51 = add i32 %.1, 3
  call void @llvm.lifetime.start.p0(i64 8, ptr nonnull %14) #14
  %52 = load i32, ptr @hf_uds_rdtci_dtc_status, align 4
  %53 = load i32, ptr @ett_uds_dtc_status_bits, align 4
  %54 = call ptr @proto_tree_add_bitmask_with_flags_ret_uint64(ptr noundef %.030, ptr noundef %0, i32 noundef %51, i32 noundef %52, i32 noundef %53, ptr noundef nonnull @dissect_uds_dtc_and_status_record.dtc_status_flags, i32 noundef 0, i32 noundef 1, ptr noundef nonnull %14)
  %55 = load i32, ptr %13, align 4
  %56 = load ptr, ptr @uds_ht_dtc_ids, align 8
  %57 = icmp eq ptr %56, null
  br i1 %57, label %uds_lookup_dtc_name.exit, label %58

58:                                               ; preds = %protoitem_append_dtc_name.exit
  call void @llvm.lifetime.start.p0(i64 8, ptr nonnull %8) #14
  %59 = zext i32 %55 to i64
  %60 = shl nuw i64 %59, 32
  %61 = zext i32 %4 to i64
  %62 = or disjoint i64 %60, %61
  store i64 %62, ptr %8, align 8
  %63 = call ptr @g_hash_table_lookup(ptr noundef nonnull %56, ptr noundef nonnull %8)
  %64 = icmp eq ptr %63, null
  br i1 %64, label %generic_lookup_addr_id.exit.i, label %generic_lookup_addr_id.exit.thread6.i

generic_lookup_addr_id.exit.thread6.i:            ; preds = %58
  call void @llvm.lifetime.end.p0(i64 8, ptr nonnull %8) #14
  br label %uds_lookup_dtc_name.exit.thread

generic_lookup_addr_id.exit.i:                    ; preds = %58
  %65 = or disjoint i64 %60, 4294967295
  store i64 %65, ptr %8, align 8
  %66 = call ptr @g_hash_table_lookup(ptr noundef nonnull %56, ptr noundef nonnull %8)
  call void @llvm.lifetime.end.p0(i64 8, ptr nonnull %8) #14
  %67 = icmp eq ptr %66, null
  br i1 %67, label %uds_lookup_dtc_name.exit, label %uds_lookup_dtc_name.exit.thread

uds_lookup_dtc_name.exit:                         ; preds = %protoitem_append_dtc_name.exit, %generic_lookup_addr_id.exit.i
  %68 = call ptr @try_val_to_str(i32 noundef %55, ptr noundef nonnull @uds_standard_dtc_types)
  %69 = icmp eq ptr %68, null
  br i1 %69, label %70, label %uds_lookup_dtc_name.exit.thread

70:                                               ; preds = %uds_lookup_dtc_name.exit
  %71 = load ptr, ptr %10, align 8
  %72 = load i32, ptr %13, align 4
  %73 = load i64, ptr %14, align 8
  %74 = trunc i64 %73 to i32
  call void (ptr, ptr, ...) @proto_item_append_text(ptr noundef %71, ptr noundef nonnull @.str.787, i32 noundef %72, i32 noundef %74)
  br label %79

uds_lookup_dtc_name.exit.thread:                  ; preds = %generic_lookup_addr_id.exit.thread6.i, %generic_lookup_addr_id.exit.i, %uds_lookup_dtc_name.exit
  %.0.i33 = phi ptr [ %68, %uds_lookup_dtc_name.exit ], [ %63, %generic_lookup_addr_id.exit.thread6.i ], [ %66, %generic_lookup_addr_id.exit.i ]
  %75 = load ptr, ptr %10, align 8
  %76 = load i32, ptr %13, align 4
  %77 = load i64, ptr %14, align 8
  %78 = trunc i64 %77 to i32
  call void (ptr, ptr, ...) @proto_item_append_text(ptr noundef %75, ptr noundef nonnull @.str.788, i32 noundef %76, ptr noundef nonnull %.0.i33, i32 noundef %78)
  br label %79

79:                                               ; preds = %uds_lookup_dtc_name.exit.thread, %70
  %80 = add i32 %.1, 4
  %81 = getelementptr inbounds nuw i8, ptr %1, i64 8
  %82 = load ptr, ptr %81, align 8
  %83 = load i32, ptr %13, align 4
  %84 = load i64, ptr %14, align 8
  %85 = trunc i64 %84 to i32
  call void (ptr, i32, ptr, ...) @col_append_fstr(ptr noundef %82, i32 noundef 25, ptr noundef nonnull @.str.789, i32 noundef %83, i32 noundef %85)
  call void @llvm.lifetime.end.p0(i64 8, ptr nonnull %14) #14
  call void @llvm.lifetime.end.p0(i64 4, ptr nonnull %13) #14
  call void @llvm.lifetime.end.p0(i64 8, ptr nonnull %10) #14
  ret i32 %80
}